target datalayout = "e-m:e-p270:32:32-p271:32:32-p272:64:64-i64:64-i128:128-f80:128-n8:16:32:64-S128"
target triple = "x86_64-pc-linux-gnu"

%struct.entity_cp_map = type { ptr, i16, i32, i32 }
%struct.entity_ht = type { i32, ptr }

; Function Attrs: alwaysinline nounwind uwtable
define internal i64 @zend_inline_hash_func(ptr noundef %0, i64 noundef %1) #4 {
  %3 = alloca ptr, align 8
  %4 = alloca i64, align 8
  %5 = alloca i64, align 8
  store ptr %0, ptr %3, align 8, !tbaa !4
  store i64 %1, ptr %4, align 8, !tbaa !9
  call void @llvm.lifetime.start.p0(i64 8, ptr %5) #15
  store i64 5381, ptr %5, align 8, !tbaa !9
  br label %6

6:                                                ; preds = %76, %2
  %7 = load i64, ptr %4, align 8, !tbaa !9
  %8 = icmp uge i64 %7, 8
  br i1 %8, label %9, label %81

9:                                                ; preds = %6
  %10 = load i64, ptr %5, align 8, !tbaa !9
  %11 = mul i64 %10, 33
  %12 = mul i64 %11, 33
  %13 = mul i64 %12, 33
  %14 = mul i64 %13, 33
  %15 = load ptr, ptr %3, align 8, !tbaa !4
  %16 = getelementptr inbounds i8, ptr %15, i64 0
  %17 = load i8, ptr %16, align 1, !tbaa !16
  %18 = sext i8 %17 to i32
  %19 = mul nsw i32 %18, 33
  %20 = mul nsw i32 %19, 33
  %21 = sext i32 %20 to i64
  %22 = mul nsw i64 %21, 33
  %23 = add i64 %14, %22
  %24 = load ptr, ptr %3, align 8, !tbaa !4
  %25 = getelementptr inbounds i8, ptr %24, i64 1
  %26 = load i8, ptr %25, align 1, !tbaa !16
  %27 = sext i8 %26 to i32
  %28 = mul nsw i32 %27, 33
  %29 = sext i32 %28 to i64
  %30 = mul nsw i64 %29, 33
  %31 = add i64 %23, %30
  %32 = load ptr, ptr %3, align 8, !tbaa !4
  %33 = getelementptr inbounds i8, ptr %32, i64 2
  %34 = load i8, ptr %33, align 1, !tbaa !16
  %35 = sext i8 %34 to i64
  %36 = mul nsw i64 %35, 33
  %37 = add i64 %31, %36
  %38 = load ptr, ptr %3, align 8, !tbaa !4
  %39 = getelementptr inbounds i8, ptr %38, i64 3
  %40 = load i8, ptr %39, align 1, !tbaa !16
  %41 = sext i8 %40 to i64
  %42 = add i64 %37, %41
  store i64 %42, ptr %5, align 8, !tbaa !9
  %43 = load i64, ptr %5, align 8, !tbaa !9
  %44 = mul i64 %43, 33
  %45 = mul i64 %44, 33
  %46 = mul i64 %45, 33
  %47 = mul i64 %46, 33
  %48 = load ptr, ptr %3, align 8, !tbaa !4
  %49 = getelementptr inbounds i8, ptr %48, i64 4
  %50 = load i8, ptr %49, align 1, !tbaa !16
  %51 = sext i8 %50 to i32
  %52 = mul nsw i32 %51, 33
  %53 = mul nsw i32 %52, 33
  %54 = sext i32 %53 to i64
  %55 = mul nsw i64 %54, 33
  %56 = add i64 %47, %55
  %57 = load ptr, ptr %3, align 8, !tbaa !4
  %58 = getelementptr inbounds i8, ptr %57, i64 5
  %59 = load i8, ptr %58, align 1, !tbaa !16
  %60 = sext i8 %59 to i32
  %61 = mul nsw i32 %60, 33
  %62 = sext i32 %61 to i64
  %63 = mul nsw i64 %62, 33
  %64 = add i64 %56, %63
  %65 = load ptr, ptr %3, align 8, !tbaa !4
  %66 = getelementptr inbounds i8, ptr %65, i64 6
  %67 = load i8, ptr %66, align 1, !tbaa !16
  %68 = sext i8 %67 to i64
  %69 = mul nsw i64 %68, 33
  %70 = add i64 %64, %69
  %71 = load ptr, ptr %3, align 8, !tbaa !4
  %72 = getelementptr inbounds i8, ptr %71, i64 7
  %73 = load i8, ptr %72, align 1, !tbaa !16
  %74 = sext i8 %73 to i64
  %75 = add i64 %70, %74
  store i64 %75, ptr %5, align 8, !tbaa !9
  br label %76

76:                                               ; preds = %9
  %77 = load i64, ptr %4, align 8, !tbaa !9
  %78 = sub i64 %77, 8
  store i64 %78, ptr %4, align 8, !tbaa !9
  %79 = load ptr, ptr %3, align 8, !tbaa !4
  %80 = getelementptr inbounds i8, ptr %79, i64 8
  store ptr %80, ptr %3, align 8, !tbaa !4
  br label %6

81:                                               ; preds = %6
  %82 = load i64, ptr %4, align 8, !tbaa !9
  %83 = icmp uge i64 %82, 4
  br i1 %83, label %84, label %122

84:                                               ; preds = %81
  %85 = load i64, ptr %5, align 8, !tbaa !9
  %86 = mul i64 %85, 33
  %87 = mul i64 %86, 33
  %88 = mul i64 %87, 33
  %89 = mul i64 %88, 33
  %90 = load ptr, ptr %3, align 8, !tbaa !4
  %91 = getelementptr inbounds i8, ptr %90, i64 0
  %92 = load i8, ptr %91, align 1, !tbaa !16
  %93 = sext i8 %92 to i32
  %94 = mul nsw i32 %93, 33
  %95 = mul nsw i32 %94, 33
  %96 = sext i32 %95 to i64
  %97 = mul nsw i64 %96, 33
  %98 = add i64 %89, %97
  %99 = load ptr, ptr %3, align 8, !tbaa !4
  %100 = getelementptr inbounds i8, ptr %99, i64 1
  %101 = load i8, ptr %100, align 1, !tbaa !16
  %102 = sext i8 %101 to i32
  %103 = mul nsw i32 %102, 33
  %104 = sext i32 %103 to i64
  %105 = mul nsw i64 %104, 33
  %106 = add i64 %98, %105
  %107 = load ptr, ptr %3, align 8, !tbaa !4
  %108 = getelementptr inbounds i8, ptr %107, i64 2
  %109 = load i8, ptr %108, align 1, !tbaa !16
  %110 = sext i8 %109 to i64
  %111 = mul nsw i64 %110, 33
  %112 = add i64 %106, %111
  %113 = load ptr, ptr %3, align 8, !tbaa !4
  %114 = getelementptr inbounds i8, ptr %113, i64 3
  %115 = load i8, ptr %114, align 1, !tbaa !16
  %116 = sext i8 %115 to i64
  %117 = add i64 %112, %116
  store i64 %117, ptr %5, align 8, !tbaa !9
  %118 = load i64, ptr %4, align 8, !tbaa !9
  %119 = sub i64 %118, 4
  store i64 %119, ptr %4, align 8, !tbaa !9
  %120 = load ptr, ptr %3, align 8, !tbaa !4
  %121 = getelementptr inbounds i8, ptr %120, i64 4
  store ptr %121, ptr %3, align 8, !tbaa !4
  br label %122

122:                                              ; preds = %84, %81
  %123 = load i64, ptr %4, align 8, !tbaa !9
  %124 = icmp uge i64 %123, 2
  br i1 %124, label %125, label %168

125:                                              ; preds = %122
  %126 = load i64, ptr %4, align 8, !tbaa !9
  %127 = icmp ugt i64 %126, 2
  br i1 %127, label %128, label %152

128:                                              ; preds = %125
  %129 = load i64, ptr %5, align 8, !tbaa !9
  %130 = mul i64 %129, 33
  %131 = mul i64 %130, 33
  %132 = mul i64 %131, 33
  %133 = load ptr, ptr %3, align 8, !tbaa !4
  %134 = getelementptr inbounds i8, ptr %133, i64 0
  %135 = load i8, ptr %134, align 1, !tbaa !16
  %136 = sext i8 %135 to i32
  %137 = mul nsw i32 %136, 33
  %138 = sext i32 %137 to i64
  %139 = mul nsw i64 %138, 33
  %140 = add i64 %132, %139
  %141 = load ptr, ptr %3, align 8, !tbaa !4
  %142 = getelementptr inbounds i8, ptr %141, i64 1
  %143 = load i8, ptr %142, align 1, !tbaa !16
  %144 = sext i8 %143 to i64
  %145 = mul nsw i64 %144, 33
  %146 = add i64 %140, %145
  %147 = load ptr, ptr %3, align 8, !tbaa !4
  %148 = getelementptr inbounds i8, ptr %147, i64 2
  %149 = load i8, ptr %148, align 1, !tbaa !16
  %150 = sext i8 %149 to i64
  %151 = add i64 %146, %150
  store i64 %151, ptr %5, align 8, !tbaa !9
  br label %167

152:                                              ; preds = %125
  %153 = load i64, ptr %5, align 8, !tbaa !9
  %154 = mul i64 %153, 33
  %155 = mul i64 %154, 33
  %156 = load ptr, ptr %3, align 8, !tbaa !4
  %157 = getelementptr inbounds i8, ptr %156, i64 0
  %158 = load i8, ptr %157, align 1, !tbaa !16
  %159 = sext i8 %158 to i64
  %160 = mul nsw i64 %159, 33
  %161 = add i64 %155, %160
  %162 = load ptr, ptr %3, align 8, !tbaa !4
  %163 = getelementptr inbounds i8, ptr %162, i64 1
  %164 = load i8, ptr %163, align 1, !tbaa !16
  %165 = sext i8 %164 to i64
  %166 = add i64 %161, %165
  store i64 %166, ptr %5, align 8, !tbaa !9
  br label %167

167:                                              ; preds = %152, %128
  br label %179

168:                                              ; preds = %122
  %169 = load i64, ptr %4, align 8, !tbaa !9
  %170 = icmp ne i64 %169, 0
  br i1 %170, label %171, label %178

171:                                              ; preds = %168
  %172 = load i64, ptr %5, align 8, !tbaa !9
  %173 = mul i64 %172, 33
  %174 = load ptr, ptr %3, align 8, !tbaa !4
  %175 = load i8, ptr %174, align 1, !tbaa !16
  %176 = sext i8 %175 to i64
  %177 = add i64 %173, %176
  store i64 %177, ptr %5, align 8, !tbaa !9
  br label %178

178:                                              ; preds = %171, %168
  br label %179

179:                                              ; preds = %178, %167
  %180 = load i64, ptr %5, align 8, !tbaa !9
  %181 = or i64 %180, -9223372036854775808
  call void @llvm.lifetime.end.p0(i64 8, ptr %5) #15
  ret i64 %181
}

; Function Attrs: nounwind uwtable
define internal i32 @resolve_named_entity_html(ptr noundef %0, i64 noundef %1, ptr noundef %2, ptr noundef %3, ptr noundef %4) #0 {
  %6 = alloca i32, align 4
  %7 = alloca ptr, align 8
  %8 = alloca i64, align 8
  %9 = alloca ptr, align 8
  %10 = alloca ptr, align 8
  %11 = alloca ptr, align 8
  %12 = alloca ptr, align 8
  %13 = alloca i64, align 8
  %14 = alloca i32, align 4
  store ptr %0, ptr %7, align 8, !tbaa !4
  store i64 %1, ptr %8, align 8, !tbaa !9
  store ptr %2, ptr %9, align 8, !tbaa !13
  store ptr %3, ptr %10, align 8, !tbaa !35
  store ptr %4, ptr %11, align 8, !tbaa !35
  call void @llvm.lifetime.start.p0(i64 8, ptr %12) #15
  call void @llvm.lifetime.start.p0(i64 8, ptr %13) #15
  %15 = load ptr, ptr %7, align 8, !tbaa !4
  %16 = load i64, ptr %8, align 8, !tbaa !9
  %17 = call i64 @zend_inline_hash_func(ptr noundef %15, i64 noundef %16)
  store i64 %17, ptr %13, align 8, !tbaa !9
  %18 = load ptr, ptr %9, align 8, !tbaa !13
  %19 = getelementptr inbounds nuw %struct.entity_ht, ptr %18, i32 0, i32 1
  %20 = load ptr, ptr %19, align 8, !tbaa !45
  %21 = load i64, ptr %13, align 8, !tbaa !9
  %22 = load ptr, ptr %9, align 8, !tbaa !13
  %23 = getelementptr inbounds nuw %struct.entity_ht, ptr %22, i32 0, i32 0
  %24 = load i32, ptr %23, align 8, !tbaa !47
  %25 = zext i32 %24 to i64
  %26 = urem i64 %21, %25
  %27 = getelementptr inbounds nuw ptr, ptr %20, i64 %26
  %28 = load ptr, ptr %27, align 8, !tbaa !13
  store ptr %28, ptr %12, align 8, !tbaa !13
  br label %29

29:                                               ; preds = %59, %5
  %30 = load ptr, ptr %12, align 8, !tbaa !13
  %31 = getelementptr inbounds nuw %struct.entity_cp_map, ptr %30, i32 0, i32 0
  %32 = load ptr, ptr %31, align 8, !tbaa !48
  %33 = icmp ne ptr %32, null
  br i1 %33, label %34, label %62

34:                                               ; preds = %29
  %35 = load ptr, ptr %12, align 8, !tbaa !13
  %36 = getelementptr inbounds nuw %struct.entity_cp_map, ptr %35, i32 0, i32 1
  %37 = load i16, ptr %36, align 8, !tbaa !50
  %38 = zext i16 %37 to i64
  %39 = load i64, ptr %8, align 8, !tbaa !9
  %40 = icmp eq i64 %38, %39
  br i1 %40, label %41, label %59

41:                                               ; preds = %34
  %42 = load ptr, ptr %7, align 8, !tbaa !4
  %43 = load ptr, ptr %12, align 8, !tbaa !13
  %44 = getelementptr inbounds nuw %struct.entity_cp_map, ptr %43, i32 0, i32 0
  %45 = load ptr, ptr %44, align 8, !tbaa !48
  %46 = load i64, ptr %8, align 8, !tbaa !9
  %47 = call i32 @memcmp(ptr noundef %42, ptr noundef %45, i64 noundef %46) #16
  %48 = icmp eq i32 %47, 0
  br i1 %48, label %49, label %58

49:                                               ; preds = %41
  %50 = load ptr, ptr %12, align 8, !tbaa !13
  %51 = getelementptr inbounds nuw %struct.entity_cp_map, ptr %50, i32 0, i32 2
  %52 = load i32, ptr %51, align 4, !tbaa !51
  %53 = load ptr, ptr %10, align 8, !tbaa !35
  store i32 %52, ptr %53, align 4, !tbaa !14
  %54 = load ptr, ptr %12, align 8, !tbaa !13
  %55 = getelementptr inbounds nuw %struct.entity_cp_map, ptr %54, i32 0, i32 3
  %56 = load i32, ptr %55, align 8, !tbaa !52
  %57 = load ptr, ptr %11, align 8, !tbaa !35
  store i32 %56, ptr %57, align 4, !tbaa !14
  store i32 0, ptr %6, align 4
  store i32 1, ptr %14, align 4
  br label %63

58:                                               ; preds = %41
  br label %59

59:                                               ; preds = %58, %34
  %60 = load ptr, ptr %12, align 8, !tbaa !13
  %61 = getelementptr inbounds nuw %struct.entity_cp_map, ptr %60, i32 1
  store ptr %61, ptr %12, align 8, !tbaa !13
  br label %29

62:                                               ; preds = %29
  store i32 -1, ptr %6, align 4
  store i32 1, ptr %14, align 4
  br label %63

63:                                               ; preds = %62, %49
  call void @llvm.lifetime.end.p0(i64 8, ptr %13) #15
  call void @llvm.lifetime.end.p0(i64 8, ptr %12) #15
  %64 = load i32, ptr %6, align 4
  ret i32 %64
}