; Function Attrs: nofree nounwind memory(read, argmem: readwrite, inaccessiblemem: none) uwtable
define internal fastcc range(i32 -1, 1) i32 @resolve_named_entity_html(ptr noundef readonly captures(none) %0, i64 noundef %1, ptr noundef readonly captures(none) %2, ptr noundef nonnull writeonly captures(none) %3, ptr noundef nonnull writeonly captures(none) %4) unnamed_addr #7 {
  %6 = icmp ugt i64 %1, 7
  br i1 %6, label %.lr.ph, label %._crit_edge

.lr.ph:                                           ; preds = %5, %.lr.ph
  %.0.i22 = phi i64 [ %45, %.lr.ph ], [ 5381, %5 ]
  %.033.i21 = phi i64 [ %46, %.lr.ph ], [ %1, %5 ]
  %.035.i20 = phi ptr [ %47, %.lr.ph ], [ %0, %5 ]
  %7 = mul i64 %.0.i22, 1185921
  %8 = load i8, ptr %.035.i20, align 1, !tbaa !10
  %9 = sext i8 %8 to i64
  %10 = mul nsw i64 %9, 35937
  %11 = add i64 %10, %7
  %12 = getelementptr inbounds nuw i8, ptr %.035.i20, i64 1
  %13 = load i8, ptr %12, align 1, !tbaa !10
  %14 = sext i8 %13 to i64
  %15 = mul nsw i64 %14, 1089
  %16 = add i64 %11, %15
  %17 = getelementptr inbounds nuw i8, ptr %.035.i20, i64 2
  %18 = load i8, ptr %17, align 1, !tbaa !10
  %19 = sext i8 %18 to i64
  %20 = mul nsw i64 %19, 33
  %21 = add i64 %16, %20
  %22 = getelementptr inbounds nuw i8, ptr %.035.i20, i64 3
  %23 = load i8, ptr %22, align 1, !tbaa !10
  %24 = sext i8 %23 to i64
  %25 = add i64 %21, %24
  %26 = mul i64 %25, 1185921
  %27 = getelementptr inbounds nuw i8, ptr %.035.i20, i64 4
  %28 = load i8, ptr %27, align 1, !tbaa !10
  %29 = sext i8 %28 to i64
  %30 = mul nsw i64 %29, 35937
  %31 = add i64 %26, %30
  %32 = getelementptr inbounds nuw i8, ptr %.035.i20, i64 5
  %33 = load i8, ptr %32, align 1, !tbaa !10
  %34 = sext i8 %33 to i64
  %35 = mul nsw i64 %34, 1089
  %36 = add i64 %31, %35
  %37 = getelementptr inbounds nuw i8, ptr %.035.i20, i64 6
  %38 = load i8, ptr %37, align 1, !tbaa !10
  %39 = sext i8 %38 to i64
  %40 = mul nsw i64 %39, 33
  %41 = add i64 %36, %40
  %42 = getelementptr inbounds nuw i8, ptr %.035.i20, i64 7
  %43 = load i8, ptr %42, align 1, !tbaa !10
  %44 = sext i8 %43 to i64
  %45 = add i64 %41, %44
  %46 = add i64 %.033.i21, -8
  %47 = getelementptr inbounds nuw i8, ptr %.035.i20, i64 8
  %48 = icmp ugt i64 %46, 7
  br i1 %48, label %.lr.ph, label %._crit_edge

._crit_edge:                                      ; preds = %.lr.ph, %5
  %.035.i.lcssa = phi ptr [ %0, %5 ], [ %47, %.lr.ph ]
  %.033.i.lcssa = phi i64 [ %1, %5 ], [ %46, %.lr.ph ]
  %.0.i.lcssa = phi i64 [ 5381, %5 ], [ %45, %.lr.ph ]
  %49 = icmp samesign ugt i64 %.033.i.lcssa, 3
  br i1 %49, label %50, label %72

50:                                               ; preds = %._crit_edge
  %51 = mul i64 %.0.i.lcssa, 1185921
  %52 = load i8, ptr %.035.i.lcssa, align 1, !tbaa !10
  %53 = sext i8 %52 to i64
  %54 = mul nsw i64 %53, 35937
  %55 = add i64 %54, %51
  %56 = getelementptr inbounds nuw i8, ptr %.035.i.lcssa, i64 1
  %57 = load i8, ptr %56, align 1, !tbaa !10
  %58 = sext i8 %57 to i64
  %59 = mul nsw i64 %58, 1089
  %60 = add i64 %55, %59
  %61 = getelementptr inbounds nuw i8, ptr %.035.i.lcssa, i64 2
  %62 = load i8, ptr %61, align 1, !tbaa !10
  %63 = sext i8 %62 to i64
  %64 = mul nsw i64 %63, 33
  %65 = add i64 %60, %64
  %66 = getelementptr inbounds nuw i8, ptr %.035.i.lcssa, i64 3
  %67 = load i8, ptr %66, align 1, !tbaa !10
  %68 = sext i8 %67 to i64
  %69 = add i64 %65, %68
  %70 = add nsw i64 %.033.i.lcssa, -4
  %71 = getelementptr inbounds nuw i8, ptr %.035.i.lcssa, i64 4
  br label %72

72:                                               ; preds = %50, %._crit_edge
  %.136.i = phi ptr [ %71, %50 ], [ %.035.i.lcssa, %._crit_edge ]
  %.134.i = phi i64 [ %70, %50 ], [ %.033.i.lcssa, %._crit_edge ]
  %.1.i = phi i64 [ %69, %50 ], [ %.0.i.lcssa, %._crit_edge ]
  %73 = icmp samesign ugt i64 %.134.i, 1
  br i1 %73, label %74, label %95

74:                                               ; preds = %72
  %.not37.i = icmp eq i64 %.134.i, 2
  %75 = load i8, ptr %.136.i, align 1, !tbaa !10
  %76 = sext i8 %75 to i64
  %77 = getelementptr inbounds nuw i8, ptr %.136.i, i64 1
  %78 = load i8, ptr %77, align 1, !tbaa !10
  %79 = sext i8 %78 to i64
  br i1 %.not37.i, label %90, label %80

80:                                               ; preds = %74
  %81 = mul i64 %.1.i, 35937
  %82 = mul nsw i64 %76, 1089
  %83 = add i64 %82, %81
  %84 = mul nsw i64 %79, 33
  %85 = add i64 %83, %84
  %86 = getelementptr inbounds nuw i8, ptr %.136.i, i64 2
  %87 = load i8, ptr %86, align 1, !tbaa !10
  %88 = sext i8 %87 to i64
  %89 = add i64 %85, %88
  br label %zend_inline_hash_func.exit

90:                                               ; preds = %74
  %91 = mul i64 %.1.i, 1089
  %92 = mul nsw i64 %76, 33
  %93 = add i64 %92, %91
  %94 = add i64 %93, %79
  br label %zend_inline_hash_func.exit

95:                                               ; preds = %72
  %.not.i = icmp eq i64 %.134.i, 0
  br i1 %.not.i, label %zend_inline_hash_func.exit, label %96

96:                                               ; preds = %95
  %97 = mul i64 %.1.i, 33
  %98 = load i8, ptr %.136.i, align 1, !tbaa !10
  %99 = sext i8 %98 to i64
  %100 = add i64 %97, %99
  br label %zend_inline_hash_func.exit

zend_inline_hash_func.exit:                       ; preds = %80, %90, %95, %96
  %.2.i = phi i64 [ %89, %80 ], [ %94, %90 ], [ %100, %96 ], [ %.1.i, %95 ]
  %101 = or i64 %.2.i, -9223372036854775808
  %102 = getelementptr inbounds nuw i8, ptr %2, i64 8
  %103 = load ptr, ptr %102, align 8, !tbaa !58
  %104 = load i32, ptr %2, align 8, !tbaa !60
  %105 = zext i32 %104 to i64
  %106 = urem i64 %101, %105
  %107 = getelementptr inbounds nuw ptr, ptr %103, i64 %106
  %108 = load ptr, ptr %107, align 8, !tbaa !52
  %109 = load ptr, ptr %108, align 8, !tbaa !61
  %.not25 = icmp eq ptr %109, null
  br i1 %.not25, label %.loopexit, label %.lr.ph27

.lr.ph27:                                         ; preds = %zend_inline_hash_func.exit, %122
  %110 = phi ptr [ %124, %122 ], [ %109, %zend_inline_hash_func.exit ]
  %.01626 = phi ptr [ %123, %122 ], [ %108, %zend_inline_hash_func.exit ]
  %111 = getelementptr inbounds nuw i8, ptr %.01626, i64 8
  %112 = load i16, ptr %111, align 8, !tbaa !63
  %113 = zext i16 %112 to i64
  %114 = icmp eq i64 %1, %113
  br i1 %114, label %115, label %122

115:                                              ; preds = %.lr.ph27
  %bcmp = tail call i32 @bcmp(ptr %0, ptr nonnull %110, i64 %1)
  %116 = icmp eq i32 %bcmp, 0
  br i1 %116, label %117, label %122

117:                                              ; preds = %115
  %118 = getelementptr inbounds nuw i8, ptr %.01626, i64 12
  %119 = load i32, ptr %118, align 4, !tbaa !64
  store i32 %119, ptr %3, align 4, !tbaa !8
  %120 = getelementptr inbounds nuw i8, ptr %.01626, i64 16
  %121 = load i32, ptr %120, align 8, !tbaa !65
  store i32 %121, ptr %4, align 4, !tbaa !8
  br label %.loopexit

122:                                              ; preds = %115, %.lr.ph27
  %123 = getelementptr inbounds nuw i8, ptr %.01626, i64 24
  %124 = load ptr, ptr %123, align 8, !tbaa !61
  %.not = icmp eq ptr %124, null
  br i1 %.not, label %.loopexit, label %.lr.ph27

.loopexit:                                        ; preds = %122, %zend_inline_hash_func.exit, %117
  %.0 = phi i32 [ 0, %117 ], [ -1, %zend_inline_hash_func.exit ], [ -1, %122 ]
  ret i32 %.0
}